; Function Attrs: nounwind uwtable
define ptr @l_Lean_Parser_initFn____x40_Lean_Parser_Extension___hyg_86_(ptr noundef %0) local_unnamed_addr #1 {
  %2 = load ptr, ptr @l_Lean_Parser_initFn____x40_Lean_Parser_Extension___hyg_86____closed__2, align 8, !tbaa !9
  %3 = tail call ptr @l_Lean_Parser_registerBuiltinNodeKind(ptr noundef %2, ptr noundef %0)
  %4 = getelementptr inbounds nuw i8, ptr %3, i64 16
  %5 = load ptr, ptr %4, align 8, !tbaa !9
  %6 = ptrtoint ptr %5 to i64
  %7 = and i64 %6, 1
  %.not = icmp eq i64 %7, 0
  br i1 %.not, label %8, label %lean_inc.exit37

8:                                                ; preds = %1
  %.val.i = load i32, ptr %5, align 4, !tbaa !4
  %9 = icmp sgt i32 %.val.i, 0
  br i1 %9, label %10, label %12, !prof !11

10:                                               ; preds = %8
  %11 = add nuw i32 %.val.i, 1
  store i32 %11, ptr %5, align 4, !tbaa !4
  br label %lean_inc.exit37

12:                                               ; preds = %8
  %.not.i53 = icmp eq i32 %.val.i, 0
  br i1 %.not.i53, label %lean_inc.exit37, label %13

13:                                               ; preds = %12
  tail call void @lean_inc_ref_cold(ptr noundef nonnull %5) #6
  br label %lean_inc.exit37

lean_inc.exit37:                                  ; preds = %13, %12, %10, %1
  %14 = ptrtoint ptr %3 to i64
  %15 = and i64 %14, 1
  %.not69 = icmp eq i64 %15, 0
  br i1 %.not69, label %16, label %lean_dec.exit42

16:                                               ; preds = %lean_inc.exit37
  %17 = load i32, ptr %3, align 4, !tbaa !4
  %18 = icmp sgt i32 %17, 1
  br i1 %18, label %19, label %21, !prof !11

19:                                               ; preds = %16
  %20 = add nsw i32 %17, -1
  store i32 %20, ptr %3, align 4, !tbaa !4
  br label %lean_dec.exit42

21:                                               ; preds = %16
  %.not.i = icmp eq i32 %17, 0
  br i1 %.not.i, label %lean_dec.exit42, label %22

22:                                               ; preds = %21
  tail call void @lean_dec_ref_cold(ptr noundef nonnull %3) #6
  br label %lean_dec.exit42

lean_dec.exit42:                                  ; preds = %22, %21, %19, %lean_inc.exit37
  %23 = load ptr, ptr @l_Lean_Parser_initFn____x40_Lean_Parser_Extension___hyg_86____closed__4, align 8, !tbaa !9
  %24 = tail call ptr @l_Lean_Parser_registerBuiltinNodeKind(ptr noundef %23, ptr noundef %5)
  %25 = getelementptr inbounds nuw i8, ptr %24, i64 16
  %26 = load ptr, ptr %25, align 8, !tbaa !9
  %27 = ptrtoint ptr %26 to i64
  %28 = and i64 %27, 1
  %.not70 = icmp eq i64 %28, 0
  br i1 %.not70, label %29, label %lean_inc.exit36

29:                                               ; preds = %lean_dec.exit42
  %.val.i54 = load i32, ptr %26, align 4, !tbaa !4
  %30 = icmp sgt i32 %.val.i54, 0
  br i1 %30, label %31, label %33, !prof !11

31:                                               ; preds = %29
  %32 = add nuw i32 %.val.i54, 1
  store i32 %32, ptr %26, align 4, !tbaa !4
  br label %lean_inc.exit36

33:                                               ; preds = %29
  %.not.i55 = icmp eq i32 %.val.i54, 0
  br i1 %.not.i55, label %lean_inc.exit36, label %34

34:                                               ; preds = %33
  tail call void @lean_inc_ref_cold(ptr noundef nonnull %26) #6
  br label %lean_inc.exit36

lean_inc.exit36:                                  ; preds = %34, %33, %31, %lean_dec.exit42
  %35 = ptrtoint ptr %24 to i64
  %36 = and i64 %35, 1
  %.not71 = icmp eq i64 %36, 0
  br i1 %.not71, label %37, label %lean_dec.exit41

37:                                               ; preds = %lean_inc.exit36
  %38 = load i32, ptr %24, align 4, !tbaa !4
  %39 = icmp sgt i32 %38, 1
  br i1 %39, label %40, label %42, !prof !11

40:                                               ; preds = %37
  %41 = add nsw i32 %38, -1
  store i32 %41, ptr %24, align 4, !tbaa !4
  br label %lean_dec.exit41

42:                                               ; preds = %37
  %.not.i43 = icmp eq i32 %38, 0
  br i1 %.not.i43, label %lean_dec.exit41, label %43

43:                                               ; preds = %42
  tail call void @lean_dec_ref_cold(ptr noundef nonnull %24) #6
  br label %lean_dec.exit41

lean_dec.exit41:                                  ; preds = %43, %42, %40, %lean_inc.exit36
  %44 = load ptr, ptr @l_Lean_Parser_initFn____x40_Lean_Parser_Extension___hyg_86____closed__6, align 8, !tbaa !9
  %45 = tail call ptr @l_Lean_Parser_registerBuiltinNodeKind(ptr noundef %44, ptr noundef %26)
  %46 = getelementptr inbounds nuw i8, ptr %45, i64 16
  %47 = load ptr, ptr %46, align 8, !tbaa !9
  %48 = ptrtoint ptr %47 to i64
  %49 = and i64 %48, 1
  %.not72 = icmp eq i64 %49, 0
  br i1 %.not72, label %50, label %lean_inc.exit35

50:                                               ; preds = %lean_dec.exit41
  %.val.i57 = load i32, ptr %47, align 4, !tbaa !4
  %51 = icmp sgt i32 %.val.i57, 0
  br i1 %51, label %52, label %54, !prof !11

52:                                               ; preds = %50
  %53 = add nuw i32 %.val.i57, 1
  store i32 %53, ptr %47, align 4, !tbaa !4
  br label %lean_inc.exit35

54:                                               ; preds = %50
  %.not.i58 = icmp eq i32 %.val.i57, 0
  br i1 %.not.i58, label %lean_inc.exit35, label %55

55:                                               ; preds = %54
  tail call void @lean_inc_ref_cold(ptr noundef nonnull %47) #6
  br label %lean_inc.exit35

lean_inc.exit35:                                  ; preds = %55, %54, %52, %lean_dec.exit41
  %56 = ptrtoint ptr %45 to i64
  %57 = and i64 %56, 1
  %.not73 = icmp eq i64 %57, 0
  br i1 %.not73, label %58, label %lean_dec.exit40

58:                                               ; preds = %lean_inc.exit35
  %59 = load i32, ptr %45, align 4, !tbaa !4
  %60 = icmp sgt i32 %59, 1
  br i1 %60, label %61, label %63, !prof !11

61:                                               ; preds = %58
  %62 = add nsw i32 %59, -1
  store i32 %62, ptr %45, align 4, !tbaa !4
  br label %lean_dec.exit40

63:                                               ; preds = %58
  %.not.i45 = icmp eq i32 %59, 0
  br i1 %.not.i45, label %lean_dec.exit40, label %64

64:                                               ; preds = %63
  tail call void @lean_dec_ref_cold(ptr noundef nonnull %45) #6
  br label %lean_dec.exit40

lean_dec.exit40:                                  ; preds = %64, %63, %61, %lean_inc.exit35
  %65 = load ptr, ptr @l_Lean_Parser_initFn____x40_Lean_Parser_Extension___hyg_86____closed__8, align 8, !tbaa !9
  %66 = tail call ptr @l_Lean_Parser_registerBuiltinNodeKind(ptr noundef %65, ptr noundef %47)
  %67 = getelementptr inbounds nuw i8, ptr %66, i64 16
  %68 = load ptr, ptr %67, align 8, !tbaa !9
  %69 = ptrtoint ptr %68 to i64
  %70 = and i64 %69, 1
  %.not74 = icmp eq i64 %70, 0
  br i1 %.not74, label %71, label %lean_inc.exit34

71:                                               ; preds = %lean_dec.exit40
  %.val.i60 = load i32, ptr %68, align 4, !tbaa !4
  %72 = icmp sgt i32 %.val.i60, 0
  br i1 %72, label %73, label %75, !prof !11

73:                                               ; preds = %71
  %74 = add nuw i32 %.val.i60, 1
  store i32 %74, ptr %68, align 4, !tbaa !4
  br label %lean_inc.exit34

75:                                               ; preds = %71
  %.not.i61 = icmp eq i32 %.val.i60, 0
  br i1 %.not.i61, label %lean_inc.exit34, label %76

76:                                               ; preds = %75
  tail call void @lean_inc_ref_cold(ptr noundef nonnull %68) #6
  br label %lean_inc.exit34

lean_inc.exit34:                                  ; preds = %76, %75, %73, %lean_dec.exit40
  %77 = ptrtoint ptr %66 to i64
  %78 = and i64 %77, 1
  %.not75 = icmp eq i64 %78, 0
  br i1 %.not75, label %79, label %lean_dec.exit39

79:                                               ; preds = %lean_inc.exit34
  %80 = load i32, ptr %66, align 4, !tbaa !4
  %81 = icmp sgt i32 %80, 1
  br i1 %81, label %82, label %84, !prof !11

82:                                               ; preds = %79
  %83 = add nsw i32 %80, -1
  store i32 %83, ptr %66, align 4, !tbaa !4
  br label %lean_dec.exit39

84:                                               ; preds = %79
  %.not.i47 = icmp eq i32 %80, 0
  br i1 %.not.i47, label %lean_dec.exit39, label %85

85:                                               ; preds = %84
  tail call void @lean_dec_ref_cold(ptr noundef nonnull %66) #6
  br label %lean_dec.exit39

lean_dec.exit39:                                  ; preds = %85, %84, %82, %lean_inc.exit34
  %86 = load ptr, ptr @l_Lean_Parser_initFn____x40_Lean_Parser_Extension___hyg_86____closed__10, align 8, !tbaa !9
  %87 = tail call ptr @l_Lean_Parser_registerBuiltinNodeKind(ptr noundef %86, ptr noundef %68)
  %88 = getelementptr inbounds nuw i8, ptr %87, i64 16
  %89 = load ptr, ptr %88, align 8, !tbaa !9
  %90 = ptrtoint ptr %89 to i64
  %91 = and i64 %90, 1
  %.not76 = icmp eq i64 %91, 0
  br i1 %.not76, label %92, label %lean_inc.exit33

92:                                               ; preds = %lean_dec.exit39
  %.val.i63 = load i32, ptr %89, align 4, !tbaa !4
  %93 = icmp sgt i32 %.val.i63, 0
  br i1 %93, label %94, label %96, !prof !11

94:                                               ; preds = %92
  %95 = add nuw i32 %.val.i63, 1
  store i32 %95, ptr %89, align 4, !tbaa !4
  br label %lean_inc.exit33

96:                                               ; preds = %92
  %.not.i64 = icmp eq i32 %.val.i63, 0
  br i1 %.not.i64, label %lean_inc.exit33, label %97

97:                                               ; preds = %96
  tail call void @lean_inc_ref_cold(ptr noundef nonnull %89) #6
  br label %lean_inc.exit33

lean_inc.exit33:                                  ; preds = %97, %96, %94, %lean_dec.exit39
  %98 = ptrtoint ptr %87 to i64
  %99 = and i64 %98, 1
  %.not77 = icmp eq i64 %99, 0
  br i1 %.not77, label %100, label %lean_dec.exit38

100:                                              ; preds = %lean_inc.exit33
  %101 = load i32, ptr %87, align 4, !tbaa !4
  %102 = icmp sgt i32 %101, 1
  br i1 %102, label %103, label %105, !prof !11

103:                                              ; preds = %100
  %104 = add nsw i32 %101, -1
  store i32 %104, ptr %87, align 4, !tbaa !4
  br label %lean_dec.exit38

105:                                              ; preds = %100
  %.not.i49 = icmp eq i32 %101, 0
  br i1 %.not.i49, label %lean_dec.exit38, label %106

106:                                              ; preds = %105
  tail call void @lean_dec_ref_cold(ptr noundef nonnull %87) #6
  br label %lean_dec.exit38

lean_dec.exit38:                                  ; preds = %106, %105, %103, %lean_inc.exit33
  %107 = load ptr, ptr @l_Lean_Parser_initFn____x40_Lean_Parser_Extension___hyg_86____closed__12, align 8, !tbaa !9
  %108 = tail call ptr @l_Lean_Parser_registerBuiltinNodeKind(ptr noundef %107, ptr noundef %89)
  %109 = getelementptr inbounds nuw i8, ptr %108, i64 16
  %110 = load ptr, ptr %109, align 8, !tbaa !9
  %111 = ptrtoint ptr %110 to i64
  %112 = and i64 %111, 1
  %.not78 = icmp eq i64 %112, 0
  br i1 %.not78, label %113, label %lean_inc.exit

113:                                              ; preds = %lean_dec.exit38
  %.val.i66 = load i32, ptr %110, align 4, !tbaa !4
  %114 = icmp sgt i32 %.val.i66, 0
  br i1 %114, label %115, label %117, !prof !11

115:                                              ; preds = %113
  %116 = add nuw i32 %.val.i66, 1
  store i32 %116, ptr %110, align 4, !tbaa !4
  br label %lean_inc.exit

117:                                              ; preds = %113
  %.not.i67 = icmp eq i32 %.val.i66, 0
  br i1 %.not.i67, label %lean_inc.exit, label %118

118:                                              ; preds = %117
  tail call void @lean_inc_ref_cold(ptr noundef nonnull %110) #6
  br label %lean_inc.exit

lean_inc.exit:                                    ; preds = %118, %117, %115, %lean_dec.exit38
  %119 = ptrtoint ptr %108 to i64
  %120 = and i64 %119, 1
  %.not79 = icmp eq i64 %120, 0
  br i1 %.not79, label %121, label %lean_dec.exit

121:                                              ; preds = %lean_inc.exit
  %122 = load i32, ptr %108, align 4, !tbaa !4
  %123 = icmp sgt i32 %122, 1
  br i1 %123, label %124, label %126, !prof !11

124:                                              ; preds = %121
  %125 = add nsw i32 %122, -1
  store i32 %125, ptr %108, align 4, !tbaa !4
  br label %lean_dec.exit

126:                                              ; preds = %121
  %.not.i51 = icmp eq i32 %122, 0
  br i1 %.not.i51, label %lean_dec.exit, label %127

127:                                              ; preds = %126
  tail call void @lean_dec_ref_cold(ptr noundef nonnull %108) #6
  br label %lean_dec.exit

lean_dec.exit:                                    ; preds = %127, %126, %124, %lean_inc.exit
  %128 = load ptr, ptr @l_Lean_Parser_initFn____x40_Lean_Parser_Extension___hyg_86____closed__14, align 8, !tbaa !9
  %129 = tail call ptr @l_Lean_Parser_registerBuiltinNodeKind(ptr noundef %128, ptr noundef %110)
  ret ptr %129
}